target datalayout = "e-m:e-p270:32:32-p271:32:32-p272:64:64-i64:64-i128:128-f80:128-n8:16:32:64-S128"
target triple = "x86_64-pc-linux-gnu"

%struct._zval_struct = type { %union._zend_value, %union.anon, %union.anon.2 }
%union._zend_value = type { i64 }
%union.anon = type { i32 }
%union.anon.2 = type { i32 }
%struct._zend_refcounted_h = type { i32, %union.anon.3 }
%union.anon.3 = type { i32 }
%struct._zend_object = type { %struct._zend_refcounted_h, i32, i32, ptr, ptr, ptr, [1 x %struct._zval_struct] }
%struct._zend_string = type { %struct._zend_refcounted_h, i64, i64, [1 x i8] }
%struct._php_sqlite3_stmt_object = type { ptr, ptr, i8, ptr, %struct._zend_object }
%struct._zend_refcounted = type { %struct._zend_refcounted_h }
%struct._php_sqlite3_result_object = type { ptr, ptr, i8, i32, ptr, %struct._zend_object }

; Function Attrs: alwaysinline nounwind uwtable
define internal i32 @zval_gc_flags(i32 noundef %0) #8 {
  %2 = alloca i32, align 4
  store i32 %0, ptr %2, align 4, !tbaa !63
  %3 = load i32, ptr %2, align 4, !tbaa !63
  %4 = lshr i32 %3, 0
  %5 = and i32 %4, 1008
  ret i32 %5
}

; Function Attrs: alwaysinline nounwind uwtable
define internal i32 @zend_gc_delref(ptr noundef %0) #8 {
  %2 = alloca ptr, align 8
  store ptr %0, ptr %2, align 8, !tbaa !206
  %3 = load ptr, ptr %2, align 8, !tbaa !206
  %4 = getelementptr inbounds nuw %struct._zend_refcounted_h, ptr %3, i32 0, i32 0
  %5 = load i32, ptr %4, align 4, !tbaa !208
  %6 = icmp ugt i32 %5, 0
  call void @llvm.assume(i1 %6)
  br label %7

7:                                                ; preds = %1
  br label %8

8:                                                ; preds = %7
  %9 = load ptr, ptr %2, align 8, !tbaa !206
  %10 = getelementptr inbounds nuw %struct._zend_refcounted_h, ptr %9, i32 0, i32 0
  %11 = load i32, ptr %10, align 4, !tbaa !208
  %12 = add i32 %11, -1
  store i32 %12, ptr %10, align 4, !tbaa !208
  ret i32 %12
}

; Function Attrs: alwaysinline nounwind uwtable
define internal void @zend_string_release_ex(ptr noundef %0, i1 noundef zeroext %1) #8 {
  %3 = alloca ptr, align 8
  %4 = alloca i8, align 1
  store ptr %0, ptr %3, align 8, !tbaa !76
  %5 = zext i1 %1 to i8
  store i8 %5, ptr %4, align 1, !tbaa !79
  %6 = load ptr, ptr %3, align 8, !tbaa !76
  %7 = getelementptr inbounds nuw %struct._zend_string, ptr %6, i32 0, i32 0
  %8 = getelementptr inbounds nuw %struct._zend_refcounted_h, ptr %7, i32 0, i32 1
  %9 = load i32, ptr %8, align 4, !tbaa !13
  %10 = call i32 @zval_gc_flags(i32 noundef %9)
  %11 = and i32 %10, 64
  %12 = icmp ne i32 %11, 0
  br i1 %12, label %27, label %13

13:                                               ; preds = %2
  %14 = load ptr, ptr %3, align 8, !tbaa !76
  %15 = getelementptr inbounds nuw %struct._zend_string, ptr %14, i32 0, i32 0
  %16 = call i32 @zend_gc_delref(ptr noundef %15)
  %17 = icmp eq i32 %16, 0
  br i1 %17, label %18, label %26

18:                                               ; preds = %13
  %19 = load i8, ptr %4, align 1, !tbaa !79, !range !59, !noundef !60
  %20 = trunc i8 %19 to i1
  br i1 %20, label %21, label %23

21:                                               ; preds = %18
  %22 = load ptr, ptr %3, align 8, !tbaa !76
  call void @free(ptr noundef %22) #15
  br label %25

23:                                               ; preds = %18
  %24 = load ptr, ptr %3, align 8, !tbaa !76
  call void @_efree(ptr noundef %24)
  br label %25

25:                                               ; preds = %23, %21
  br label %26

26:                                               ; preds = %25, %13
  br label %27

27:                                               ; preds = %26, %2
  ret void
}

; Function Attrs: alwaysinline nounwind uwtable
define internal void @zend_object_release(ptr noundef %0) #8 {
  %2 = alloca ptr, align 8
  store ptr %0, ptr %2, align 8, !tbaa !67
  %3 = load ptr, ptr %2, align 8, !tbaa !67
  %4 = getelementptr inbounds nuw %struct._zend_object, ptr %3, i32 0, i32 0
  %5 = call i32 @zend_gc_delref(ptr noundef %4)
  %6 = icmp eq i32 %5, 0
  br i1 %6, label %7, label %9

7:                                                ; preds = %1
  %8 = load ptr, ptr %2, align 8, !tbaa !67
  call void @zend_objects_store_del(ptr noundef %8)
  br label %25

9:                                                ; preds = %1
  %10 = load ptr, ptr %2, align 8, !tbaa !67
  %11 = getelementptr inbounds nuw %struct._zend_refcounted, ptr %10, i32 0, i32 0
  %12 = getelementptr inbounds nuw %struct._zend_refcounted_h, ptr %11, i32 0, i32 1
  %13 = load i32, ptr %12, align 4, !tbaa !13
  %14 = and i32 %13, -1008
  %15 = icmp eq i32 %14, 0
  %16 = xor i1 %15, true
  %17 = xor i1 %16, true
  %18 = zext i1 %17 to i32
  %19 = sext i32 %18 to i64
  %20 = call i64 @llvm.expect.i64(i64 %19, i64 0)
  %21 = icmp ne i64 %20, 0
  br i1 %21, label %22, label %24

22:                                               ; preds = %9
  %23 = load ptr, ptr %2, align 8, !tbaa !67
  call void @gc_possible_root(ptr noundef %23)
  br label %24

24:                                               ; preds = %22, %9
  br label %25

25:                                               ; preds = %24, %7
  ret void
}

; Function Attrs: nounwind uwtable
define internal void @sqlite3result_clear_column_names_cache(ptr noundef %0) #0 {
  %2 = alloca ptr, align 8
  %3 = alloca i32, align 4
  store ptr %0, ptr %2, align 8, !tbaa !94
  %4 = load ptr, ptr %2, align 8, !tbaa !94
  %5 = getelementptr inbounds nuw %struct._php_sqlite3_result_object, ptr %4, i32 0, i32 4
  %6 = load ptr, ptr %5, align 8, !tbaa !100
  %7 = icmp ne ptr %6, null
  br i1 %7, label %8, label %31

8:                                                ; preds = %1
  call void @llvm.lifetime.start.p0(i64 4, ptr %3) #15
  store i32 0, ptr %3, align 4, !tbaa !63
  br label %9

9:                                                ; preds = %24, %8
  %10 = load i32, ptr %3, align 4, !tbaa !63
  %11 = load ptr, ptr %2, align 8, !tbaa !94
  %12 = getelementptr inbounds nuw %struct._php_sqlite3_result_object, ptr %11, i32 0, i32 3
  %13 = load i32, ptr %12, align 4, !tbaa !101
  %14 = icmp slt i32 %10, %13
  br i1 %14, label %16, label %15

15:                                               ; preds = %9
  call void @llvm.lifetime.end.p0(i64 4, ptr %3) #15
  br label %27

16:                                               ; preds = %9
  %17 = load ptr, ptr %2, align 8, !tbaa !94
  %18 = getelementptr inbounds nuw %struct._php_sqlite3_result_object, ptr %17, i32 0, i32 4
  %19 = load ptr, ptr %18, align 8, !tbaa !100
  %20 = load i32, ptr %3, align 4, !tbaa !63
  %21 = sext i32 %20 to i64
  %22 = getelementptr inbounds ptr, ptr %19, i64 %21
  %23 = load ptr, ptr %22, align 8, !tbaa !76
  call void @zend_string_release_ex(ptr noundef %23, i1 noundef zeroext false)
  br label %24

24:                                               ; preds = %16
  %25 = load i32, ptr %3, align 4, !tbaa !63
  %26 = add nsw i32 %25, 1
  store i32 %26, ptr %3, align 4, !tbaa !63
  br label %9

27:                                               ; preds = %15
  %28 = load ptr, ptr %2, align 8, !tbaa !94
  %29 = getelementptr inbounds nuw %struct._php_sqlite3_result_object, ptr %28, i32 0, i32 4
  %30 = load ptr, ptr %29, align 8, !tbaa !100
  call void @_efree(ptr noundef %30)
  br label %31

31:                                               ; preds = %27, %1
  %32 = load ptr, ptr %2, align 8, !tbaa !94
  %33 = getelementptr inbounds nuw %struct._php_sqlite3_result_object, ptr %32, i32 0, i32 4
  store ptr null, ptr %33, align 8, !tbaa !100
  %34 = load ptr, ptr %2, align 8, !tbaa !94
  %35 = getelementptr inbounds nuw %struct._php_sqlite3_result_object, ptr %34, i32 0, i32 3
  store i32 -1, ptr %35, align 4, !tbaa !101
  ret void
}

; Function Attrs: inlinehint nounwind uwtable
define internal ptr @php_sqlite3_result_from_obj(ptr noundef %0) #2 {
  %2 = alloca ptr, align 8
  store ptr %0, ptr %2, align 8, !tbaa !67
  %3 = load ptr, ptr %2, align 8, !tbaa !67
  %4 = getelementptr inbounds i8, ptr %3, i64 -32
  ret ptr %4
}

; Function Attrs: nounwind uwtable
define internal void @php_sqlite3_result_object_free_storage(ptr noundef %0) #0 {
  %2 = alloca ptr, align 8
  %3 = alloca ptr, align 8
  store ptr %0, ptr %2, align 8, !tbaa !67
  call void @llvm.lifetime.start.p0(i64 8, ptr %3) #15
  %4 = load ptr, ptr %2, align 8, !tbaa !67
  %5 = call ptr @php_sqlite3_result_from_obj(ptr noundef %4)
  store ptr %5, ptr %3, align 8, !tbaa !94
  %6 = load ptr, ptr %3, align 8, !tbaa !94
  call void @sqlite3result_clear_column_names_cache(ptr noundef %6)
  %7 = load ptr, ptr %3, align 8, !tbaa !94
  %8 = getelementptr inbounds nuw %struct._php_sqlite3_result_object, ptr %7, i32 0, i32 1
  %9 = load ptr, ptr %8, align 8, !tbaa !99
  %10 = icmp ne ptr %9, null
  br i1 %10, label %11, label %30

11:                                               ; preds = %1
  %12 = load ptr, ptr %3, align 8, !tbaa !94
  %13 = getelementptr inbounds nuw %struct._php_sqlite3_result_object, ptr %12, i32 0, i32 1
  %14 = load ptr, ptr %13, align 8, !tbaa !99
  %15 = getelementptr inbounds nuw %struct._php_sqlite3_stmt_object, ptr %14, i32 0, i32 2
  %16 = load i8, ptr %15, align 8, !tbaa !88, !range !59, !noundef !60
  %17 = trunc i8 %16 to i1
  br i1 %17, label %18, label %25

18:                                               ; preds = %11
  %19 = load ptr, ptr %3, align 8, !tbaa !94
  %20 = getelementptr inbounds nuw %struct._php_sqlite3_result_object, ptr %19, i32 0, i32 1
  %21 = load ptr, ptr %20, align 8, !tbaa !99
  %22 = getelementptr inbounds nuw %struct._php_sqlite3_stmt_object, ptr %21, i32 0, i32 0
  %23 = load ptr, ptr %22, align 8, !tbaa !102
  %24 = call i32 @sqlite3_reset(ptr noundef %23)
  br label %25

25:                                               ; preds = %18, %11
  %26 = load ptr, ptr %3, align 8, !tbaa !94
  %27 = getelementptr inbounds nuw %struct._php_sqlite3_result_object, ptr %26, i32 0, i32 1
  %28 = load ptr, ptr %27, align 8, !tbaa !99
  %29 = getelementptr inbounds nuw %struct._php_sqlite3_stmt_object, ptr %28, i32 0, i32 4
  call void @zend_object_release(ptr noundef %29)
  br label %30

30:                                               ; preds = %25, %1
  %31 = load ptr, ptr %3, align 8, !tbaa !94
  %32 = getelementptr inbounds nuw %struct._php_sqlite3_result_object, ptr %31, i32 0, i32 5
  call void @zend_object_std_dtor(ptr noundef %32)
  call void @llvm.lifetime.end.p0(i64 8, ptr %3) #15
  ret void
}