; Function Attrs: nounwind uwtable
define internal void @php_sqlite3_result_object_free_storage(ptr noundef %0) #0 {
  %2 = getelementptr inbounds i8, ptr %0, i64 -8
  %3 = load ptr, ptr %2, align 8, !tbaa !98
  %.not.i = icmp eq ptr %3, null
  br i1 %.not.i, label %sqlite3result_clear_column_names_cache.exit, label %.preheader.i

.preheader.i:                                     ; preds = %1
  %4 = getelementptr inbounds i8, ptr %0, i64 -12
  %5 = load i32, ptr %4, align 4, !tbaa !99
  %6 = icmp sgt i32 %5, 0
  br i1 %6, label %.lr.ph.i, label %._crit_edge.i

._crit_edge.loopexit.i:                           ; preds = %zend_string_release_ex.exit.i
  %.pre10.i = load ptr, ptr %2, align 8, !tbaa !98
  br label %._crit_edge.i

._crit_edge.i:                                    ; preds = %._crit_edge.loopexit.i, %.preheader.i
  %7 = phi ptr [ %.pre10.i, %._crit_edge.loopexit.i ], [ %3, %.preheader.i ]
  tail call void @_efree(ptr noundef %7) #17
  br label %sqlite3result_clear_column_names_cache.exit

.lr.ph.i:                                         ; preds = %.preheader.i, %zend_string_release_ex.exit.i
  %8 = phi i32 [ %21, %zend_string_release_ex.exit.i ], [ %5, %.preheader.i ]
  %indvars.iv.i = phi i64 [ %indvars.iv.next.i, %zend_string_release_ex.exit.i ], [ 0, %.preheader.i ]
  %9 = load ptr, ptr %2, align 8, !tbaa !98
  %10 = getelementptr inbounds nuw ptr, ptr %9, i64 %indvars.iv.i
  %11 = load ptr, ptr %10, align 8, !tbaa !79
  %12 = getelementptr inbounds nuw i8, ptr %11, i64 4
  %13 = load i32, ptr %12, align 4, !tbaa !8
  %14 = and i32 %13, 64
  %.not.i.i = icmp eq i32 %14, 0
  br i1 %.not.i.i, label %15, label %zend_string_release_ex.exit.i

15:                                               ; preds = %.lr.ph.i
  %16 = load i32, ptr %11, align 4, !tbaa !70
  %17 = icmp ne i32 %16, 0
  tail call void @llvm.assume(i1 %17)
  %18 = add i32 %16, -1
  store i32 %18, ptr %11, align 4, !tbaa !70
  %19 = icmp eq i32 %18, 0
  br i1 %19, label %20, label %zend_string_release_ex.exit.i

20:                                               ; preds = %15
  tail call void @_efree(ptr noundef nonnull %11) #17
  %.pre.i = load i32, ptr %4, align 4, !tbaa !99
  br label %zend_string_release_ex.exit.i

zend_string_release_ex.exit.i:                    ; preds = %20, %15, %.lr.ph.i
  %21 = phi i32 [ %8, %.lr.ph.i ], [ %8, %15 ], [ %.pre.i, %20 ]
  %indvars.iv.next.i = add nuw nsw i64 %indvars.iv.i, 1
  %22 = sext i32 %21 to i64
  %23 = icmp slt i64 %indvars.iv.next.i, %22
  br i1 %23, label %.lr.ph.i, label %._crit_edge.loopexit.i

sqlite3result_clear_column_names_cache.exit:      ; preds = %1, %._crit_edge.i
  store ptr null, ptr %2, align 8, !tbaa !98
  %24 = getelementptr inbounds i8, ptr %0, i64 -12
  store i32 -1, ptr %24, align 4, !tbaa !99
  %25 = getelementptr inbounds i8, ptr %0, i64 -24
  %26 = load ptr, ptr %25, align 8, !tbaa !97
  %.not = icmp eq ptr %26, null
  br i1 %.not, label %zend_object_release.exit, label %27

27:                                               ; preds = %sqlite3result_clear_column_names_cache.exit
  %28 = getelementptr inbounds nuw i8, ptr %26, i64 16
  %29 = load i8, ptr %28, align 8, !tbaa !88, !range !55, !noundef !56
  %30 = trunc nuw i8 %29 to i1
  br i1 %30, label %31, label %34

31:                                               ; preds = %27
  %32 = load ptr, ptr %26, align 8, !tbaa !100
  %33 = tail call i32 @sqlite3_reset(ptr noundef %32) #17
  %.pre = load ptr, ptr %25, align 8, !tbaa !97
  br label %34

34:                                               ; preds = %31, %27
  %35 = phi ptr [ %.pre, %31 ], [ %26, %27 ]
  %36 = getelementptr inbounds nuw i8, ptr %35, i64 32
  %37 = load i32, ptr %36, align 4, !tbaa !70
  %38 = icmp ne i32 %37, 0
  tail call void @llvm.assume(i1 %38)
  %39 = add i32 %37, -1
  store i32 %39, ptr %36, align 4, !tbaa !70
  %40 = icmp eq i32 %39, 0
  br i1 %40, label %41, label %42

41:                                               ; preds = %34
  tail call void @zend_objects_store_del(ptr noundef nonnull %36) #17
  br label %zend_object_release.exit

42:                                               ; preds = %34
  %43 = getelementptr inbounds nuw i8, ptr %35, i64 36
  %44 = load i32, ptr %43, align 4, !tbaa !8
  %45 = and i32 %44, -1008
  %46 = icmp eq i32 %45, 0
  br i1 %46, label %47, label %zend_object_release.exit, !prof !108

47:                                               ; preds = %42
  tail call void @gc_possible_root(ptr noundef nonnull %36) #17
  br label %zend_object_release.exit

zend_object_release.exit:                         ; preds = %47, %42, %41, %sqlite3result_clear_column_names_cache.exit
  tail call void @zend_object_std_dtor(ptr noundef nonnull %0) #17
  ret void
}